; Function Attrs: mustprogress uwtable
define noundef double @_ZNK8QuantLib18FdmSquareRootFwdOp5zetamEm(ptr nocapture noundef nonnull readonly align 8 dereferenceable(80) %this, i64 noundef %i) local_unnamed_addr #3 align 2 {
entry:
  %sub = add i64 %i, -1
  %call.i = tail call noundef double @_ZNK8QuantLib18FdmSquareRootFwdOp1vEm(ptr noundef nonnull readonly align 8 dereferenceable(80) %this, i64 noundef %i)
  %call2.i = tail call noundef double @_ZNK8QuantLib18FdmSquareRootFwdOp1vEm(ptr noundef nonnull readonly align 8 dereferenceable(80) %this, i64 noundef %sub)
  %sub.i = fsub double %call.i, %call2.i
  %call.i3 = tail call noundef double @_ZNK8QuantLib18FdmSquareRootFwdOp1vEm(ptr noundef nonnull readonly align 8 dereferenceable(80) %this, i64 noundef %i)
  %call2.i4 = tail call noundef double @_ZNK8QuantLib18FdmSquareRootFwdOp1vEm(ptr noundef nonnull readonly align 8 dereferenceable(80) %this, i64 noundef %sub)
  %sub.i5 = fsub double %call.i3, %call2.i4
  %add.i = add i64 %i, 1
  %call.i6 = tail call noundef double @_ZNK8QuantLib18FdmSquareRootFwdOp1vEm(ptr noundef nonnull readonly align 8 dereferenceable(80) %this, i64 noundef %add.i)
  %call2.i7 = tail call noundef double @_ZNK8QuantLib18FdmSquareRootFwdOp1vEm(ptr noundef nonnull readonly align 8 dereferenceable(80) %this, i64 noundef %i)
  %sub.i8 = fsub double %call.i6, %call2.i7
  %add = fadd double %sub.i5, %sub.i8
  %mul = fmul double %sub.i, %add
  ret double %mul
}